target datalayout = "e-m:e-p270:32:32-p271:32:32-p272:64:64-i64:64-i128:128-f80:128-n8:16:32:64-S128"
target triple = "x86_64-pc-linux-gnu"

%struct.location = type { i32, i32 }
%struct.block = type { ptr, ptr }
%struct.inst = type { ptr, ptr, i32, %struct.anon, ptr, %struct.location, ptr, ptr, i32, i32, i32, i32, %struct.block, %struct.block, ptr, i32 }
%struct.anon = type { i16, ptr, %struct.jv, ptr }
%struct.jv = type { i8, i8, i16, i32, %union.anon }
%union.anon = type { ptr }

@UNKNOWN_LOCATION = internal constant %struct.location { i32 -1, i32 -1 }, align 4
@.str.3 = private unnamed_addr constant [3 x i8] c"as\00", align 1
@.str.4 = private unnamed_addr constant [8 x i8] c"is_data\00", align 1
@.str.5 = private unnamed_addr constant [8 x i8] c"relpath\00", align 1

; Function Attrs: nounwind uwtable
define dso_local { ptr, ptr } @gen_noop() #0 {
  %1 = alloca %struct.block, align 8
  call void @llvm.memset.p0.i64(ptr align 8 %1, i8 0, i64 16, i1 false)
  %2 = load { ptr, ptr }, ptr %1, align 8
  ret { ptr, ptr } %2
}

; Function Attrs: nounwind uwtable
define internal { ptr, ptr } @inst_block(ptr noundef %0) #0 {
  %2 = alloca %struct.block, align 8
  %3 = alloca ptr, align 8
  store ptr %0, ptr %3, align 8, !tbaa !13
  %4 = getelementptr inbounds nuw %struct.block, ptr %2, i32 0, i32 0
  %5 = load ptr, ptr %3, align 8, !tbaa !13
  store ptr %5, ptr %4, align 8, !tbaa !4
  %6 = getelementptr inbounds nuw %struct.block, ptr %2, i32 0, i32 1
  %7 = load ptr, ptr %3, align 8, !tbaa !13
  store ptr %7, ptr %6, align 8, !tbaa !10
  %8 = load { ptr, ptr }, ptr %2, align 8
  ret { ptr, ptr } %8
}

; Function Attrs: nounwind uwtable
define internal ptr @inst_new(i32 noundef %0) #0 {
  %2 = alloca i32, align 4
  %3 = alloca ptr, align 8
  %4 = alloca %struct.block, align 8
  %5 = alloca %struct.block, align 8
  store i32 %0, ptr %2, align 4, !tbaa !26
  call void @llvm.lifetime.start.p0(i64 8, ptr %3) #7
  %6 = call ptr @jv_mem_alloc(i64 noundef 160)
  store ptr %6, ptr %3, align 8, !tbaa !13
  %7 = load ptr, ptr %3, align 8, !tbaa !13
  %8 = getelementptr inbounds nuw %struct.inst, ptr %7, i32 0, i32 1
  store ptr null, ptr %8, align 8, !tbaa !32
  %9 = load ptr, ptr %3, align 8, !tbaa !13
  %10 = getelementptr inbounds nuw %struct.inst, ptr %9, i32 0, i32 0
  store ptr null, ptr %10, align 8, !tbaa !28
  %11 = load i32, ptr %2, align 4, !tbaa !26
  %12 = load ptr, ptr %3, align 8, !tbaa !13
  %13 = getelementptr inbounds nuw %struct.inst, ptr %12, i32 0, i32 2
  store i32 %11, ptr %13, align 8, !tbaa !33
  %14 = load ptr, ptr %3, align 8, !tbaa !13
  %15 = getelementptr inbounds nuw %struct.inst, ptr %14, i32 0, i32 15
  store i32 -1, ptr %15, align 8, !tbaa !34
  %16 = load ptr, ptr %3, align 8, !tbaa !13
  %17 = getelementptr inbounds nuw %struct.inst, ptr %16, i32 0, i32 6
  store ptr null, ptr %17, align 8, !tbaa !35
  %18 = load ptr, ptr %3, align 8, !tbaa !13
  %19 = getelementptr inbounds nuw %struct.inst, ptr %18, i32 0, i32 7
  store ptr null, ptr %19, align 8, !tbaa !36
  %20 = load ptr, ptr %3, align 8, !tbaa !13
  %21 = getelementptr inbounds nuw %struct.inst, ptr %20, i32 0, i32 8
  store i32 0, ptr %21, align 8, !tbaa !37
  %22 = load ptr, ptr %3, align 8, !tbaa !13
  %23 = getelementptr inbounds nuw %struct.inst, ptr %22, i32 0, i32 9
  store i32 0, ptr %23, align 4, !tbaa !38
  %24 = load ptr, ptr %3, align 8, !tbaa !13
  %25 = getelementptr inbounds nuw %struct.inst, ptr %24, i32 0, i32 10
  store i32 -1, ptr %25, align 8, !tbaa !39
  %26 = load ptr, ptr %3, align 8, !tbaa !13
  %27 = getelementptr inbounds nuw %struct.inst, ptr %26, i32 0, i32 11
  store i32 -1, ptr %27, align 4, !tbaa !40
  %28 = load ptr, ptr %3, align 8, !tbaa !13
  %29 = getelementptr inbounds nuw %struct.inst, ptr %28, i32 0, i32 12
  call void @llvm.lifetime.start.p0(i64 16, ptr %4) #7
  %30 = call { ptr, ptr } @gen_noop()
  %31 = getelementptr inbounds nuw { ptr, ptr }, ptr %4, i32 0, i32 0
  %32 = extractvalue { ptr, ptr } %30, 0
  store ptr %32, ptr %31, align 8
  %33 = getelementptr inbounds nuw { ptr, ptr }, ptr %4, i32 0, i32 1
  %34 = extractvalue { ptr, ptr } %30, 1
  store ptr %34, ptr %33, align 8
  call void @llvm.memcpy.p0.p0.i64(ptr align 8 %29, ptr align 8 %4, i64 16, i1 false), !tbaa.struct !31
  call void @llvm.lifetime.end.p0(i64 16, ptr %4) #7
  %35 = load ptr, ptr %3, align 8, !tbaa !13
  %36 = getelementptr inbounds nuw %struct.inst, ptr %35, i32 0, i32 13
  call void @llvm.lifetime.start.p0(i64 16, ptr %5) #7
  %37 = call { ptr, ptr } @gen_noop()
  %38 = getelementptr inbounds nuw { ptr, ptr }, ptr %5, i32 0, i32 0
  %39 = extractvalue { ptr, ptr } %37, 0
  store ptr %39, ptr %38, align 8
  %40 = getelementptr inbounds nuw { ptr, ptr }, ptr %5, i32 0, i32 1
  %41 = extractvalue { ptr, ptr } %37, 1
  store ptr %41, ptr %40, align 8
  call void @llvm.memcpy.p0.p0.i64(ptr align 8 %36, ptr align 8 %5, i64 16, i1 false), !tbaa.struct !31
  call void @llvm.lifetime.end.p0(i64 16, ptr %5) #7
  %42 = load ptr, ptr %3, align 8, !tbaa !13
  %43 = getelementptr inbounds nuw %struct.inst, ptr %42, i32 0, i32 5
  call void @llvm.memcpy.p0.p0.i64(ptr align 8 %43, ptr align 4 @UNKNOWN_LOCATION, i64 8, i1 false), !tbaa.struct !25
  %44 = load ptr, ptr %3, align 8, !tbaa !13
  %45 = getelementptr inbounds nuw %struct.inst, ptr %44, i32 0, i32 4
  store ptr null, ptr %45, align 8, !tbaa !27
  %46 = load ptr, ptr %3, align 8, !tbaa !13
  call void @llvm.lifetime.end.p0(i64 8, ptr %3) #7
  ret ptr %46
}

; Function Attrs: nounwind uwtable
define dso_local { ptr, ptr } @gen_import(ptr noundef %0, ptr noundef %1, i32 noundef %2) #0 {
  %4 = alloca %struct.block, align 8
  %5 = alloca ptr, align 8
  %6 = alloca ptr, align 8
  %7 = alloca i32, align 4
  %8 = alloca ptr, align 8
  %9 = alloca %struct.jv, align 8
  %10 = alloca %struct.jv, align 8
  %11 = alloca %struct.jv, align 8
  %12 = alloca %struct.jv, align 8
  %13 = alloca %struct.jv, align 8
  %14 = alloca %struct.jv, align 8
  %15 = alloca %struct.jv, align 8
  %16 = alloca %struct.jv, align 8
  %17 = alloca %struct.jv, align 8
  %18 = alloca %struct.jv, align 8
  store ptr %0, ptr %5, align 8, !tbaa !44
  store ptr %1, ptr %6, align 8, !tbaa !44
  store i32 %2, ptr %7, align 4, !tbaa !26
  call void @llvm.lifetime.start.p0(i64 8, ptr %8) #7
  %19 = call ptr @inst_new(i32 noundef 37)
  store ptr %19, ptr %8, align 8, !tbaa !13
  call void @llvm.lifetime.start.p0(i64 16, ptr %9) #7
  %20 = call { i64, ptr } @jv_object()
  %21 = getelementptr inbounds nuw { i64, ptr }, ptr %9, i32 0, i32 0
  %22 = extractvalue { i64, ptr } %20, 0
  store i64 %22, ptr %21, align 8
  %23 = getelementptr inbounds nuw { i64, ptr }, ptr %9, i32 0, i32 1
  %24 = extractvalue { i64, ptr } %20, 1
  store ptr %24, ptr %23, align 8
  %25 = load ptr, ptr %6, align 8, !tbaa !44
  %26 = icmp ne ptr %25, null
  br i1 %26, label %27, label %56

27:                                               ; preds = %3
  call void @llvm.lifetime.start.p0(i64 16, ptr %10) #7
  %28 = call { i64, ptr } @jv_string(ptr noundef @.str.3)
  %29 = getelementptr inbounds nuw { i64, ptr }, ptr %11, i32 0, i32 0
  %30 = extractvalue { i64, ptr } %28, 0
  store i64 %30, ptr %29, align 8
  %31 = getelementptr inbounds nuw { i64, ptr }, ptr %11, i32 0, i32 1
  %32 = extractvalue { i64, ptr } %28, 1
  store ptr %32, ptr %31, align 8
  %33 = load ptr, ptr %6, align 8, !tbaa !44
  %34 = call { i64, ptr } @jv_string(ptr noundef %33)
  %35 = getelementptr inbounds nuw { i64, ptr }, ptr %12, i32 0, i32 0
  %36 = extractvalue { i64, ptr } %34, 0
  store i64 %36, ptr %35, align 8
  %37 = getelementptr inbounds nuw { i64, ptr }, ptr %12, i32 0, i32 1
  %38 = extractvalue { i64, ptr } %34, 1
  store ptr %38, ptr %37, align 8
  %39 = getelementptr inbounds nuw { i64, ptr }, ptr %9, i32 0, i32 0
  %40 = load i64, ptr %39, align 8
  %41 = getelementptr inbounds nuw { i64, ptr }, ptr %9, i32 0, i32 1
  %42 = load ptr, ptr %41, align 8
  %43 = getelementptr inbounds nuw { i64, ptr }, ptr %11, i32 0, i32 0
  %44 = load i64, ptr %43, align 8
  %45 = getelementptr inbounds nuw { i64, ptr }, ptr %11, i32 0, i32 1
  %46 = load ptr, ptr %45, align 8
  %47 = getelementptr inbounds nuw { i64, ptr }, ptr %12, i32 0, i32 0
  %48 = load i64, ptr %47, align 8
  %49 = getelementptr inbounds nuw { i64, ptr }, ptr %12, i32 0, i32 1
  %50 = load ptr, ptr %49, align 8
  %51 = call { i64, ptr } @jv_object_set(i64 %40, ptr %42, i64 %44, ptr %46, i64 %48, ptr %50)
  %52 = getelementptr inbounds nuw { i64, ptr }, ptr %10, i32 0, i32 0
  %53 = extractvalue { i64, ptr } %51, 0
  store i64 %53, ptr %52, align 8
  %54 = getelementptr inbounds nuw { i64, ptr }, ptr %10, i32 0, i32 1
  %55 = extractvalue { i64, ptr } %51, 1
  store ptr %55, ptr %54, align 8
  call void @llvm.memcpy.p0.p0.i64(ptr align 8 %9, ptr align 8 %10, i64 16, i1 false), !tbaa.struct !41
  call void @llvm.lifetime.end.p0(i64 16, ptr %10) #7
  br label %56

56:                                               ; preds = %27, %3
  call void @llvm.lifetime.start.p0(i64 16, ptr %13) #7
  %57 = call { i64, ptr } @jv_string(ptr noundef @.str.4)
  %58 = getelementptr inbounds nuw { i64, ptr }, ptr %14, i32 0, i32 0
  %59 = extractvalue { i64, ptr } %57, 0
  store i64 %59, ptr %58, align 8
  %60 = getelementptr inbounds nuw { i64, ptr }, ptr %14, i32 0, i32 1
  %61 = extractvalue { i64, ptr } %57, 1
  store ptr %61, ptr %60, align 8
  %62 = load i32, ptr %7, align 4, !tbaa !26
  %63 = icmp ne i32 %62, 0
  br i1 %63, label %64, label %70

64:                                               ; preds = %56
  %65 = call { i64, ptr } @jv_true()
  %66 = getelementptr inbounds nuw { i64, ptr }, ptr %15, i32 0, i32 0
  %67 = extractvalue { i64, ptr } %65, 0
  store i64 %67, ptr %66, align 8
  %68 = getelementptr inbounds nuw { i64, ptr }, ptr %15, i32 0, i32 1
  %69 = extractvalue { i64, ptr } %65, 1
  store ptr %69, ptr %68, align 8
  br label %76

70:                                               ; preds = %56
  %71 = call { i64, ptr } @jv_false()
  %72 = getelementptr inbounds nuw { i64, ptr }, ptr %15, i32 0, i32 0
  %73 = extractvalue { i64, ptr } %71, 0
  store i64 %73, ptr %72, align 8
  %74 = getelementptr inbounds nuw { i64, ptr }, ptr %15, i32 0, i32 1
  %75 = extractvalue { i64, ptr } %71, 1
  store ptr %75, ptr %74, align 8
  br label %76

76:                                               ; preds = %70, %64
  %77 = getelementptr inbounds nuw { i64, ptr }, ptr %9, i32 0, i32 0
  %78 = load i64, ptr %77, align 8
  %79 = getelementptr inbounds nuw { i64, ptr }, ptr %9, i32 0, i32 1
  %80 = load ptr, ptr %79, align 8
  %81 = getelementptr inbounds nuw { i64, ptr }, ptr %14, i32 0, i32 0
  %82 = load i64, ptr %81, align 8
  %83 = getelementptr inbounds nuw { i64, ptr }, ptr %14, i32 0, i32 1
  %84 = load ptr, ptr %83, align 8
  %85 = getelementptr inbounds nuw { i64, ptr }, ptr %15, i32 0, i32 0
  %86 = load i64, ptr %85, align 8
  %87 = getelementptr inbounds nuw { i64, ptr }, ptr %15, i32 0, i32 1
  %88 = load ptr, ptr %87, align 8
  %89 = call { i64, ptr } @jv_object_set(i64 %78, ptr %80, i64 %82, ptr %84, i64 %86, ptr %88)
  %90 = getelementptr inbounds nuw { i64, ptr }, ptr %13, i32 0, i32 0
  %91 = extractvalue { i64, ptr } %89, 0
  store i64 %91, ptr %90, align 8
  %92 = getelementptr inbounds nuw { i64, ptr }, ptr %13, i32 0, i32 1
  %93 = extractvalue { i64, ptr } %89, 1
  store ptr %93, ptr %92, align 8
  call void @llvm.memcpy.p0.p0.i64(ptr align 8 %9, ptr align 8 %13, i64 16, i1 false), !tbaa.struct !41
  call void @llvm.lifetime.end.p0(i64 16, ptr %13) #7
  call void @llvm.lifetime.start.p0(i64 16, ptr %16) #7
  %94 = call { i64, ptr } @jv_string(ptr noundef @.str.5)
  %95 = getelementptr inbounds nuw { i64, ptr }, ptr %17, i32 0, i32 0
  %96 = extractvalue { i64, ptr } %94, 0
  store i64 %96, ptr %95, align 8
  %97 = getelementptr inbounds nuw { i64, ptr }, ptr %17, i32 0, i32 1
  %98 = extractvalue { i64, ptr } %94, 1
  store ptr %98, ptr %97, align 8
  %99 = load ptr, ptr %5, align 8, !tbaa !44
  %100 = call { i64, ptr } @jv_string(ptr noundef %99)
  %101 = getelementptr inbounds nuw { i64, ptr }, ptr %18, i32 0, i32 0
  %102 = extractvalue { i64, ptr } %100, 0
  store i64 %102, ptr %101, align 8
  %103 = getelementptr inbounds nuw { i64, ptr }, ptr %18, i32 0, i32 1
  %104 = extractvalue { i64, ptr } %100, 1
  store ptr %104, ptr %103, align 8
  %105 = getelementptr inbounds nuw { i64, ptr }, ptr %9, i32 0, i32 0
  %106 = load i64, ptr %105, align 8
  %107 = getelementptr inbounds nuw { i64, ptr }, ptr %9, i32 0, i32 1
  %108 = load ptr, ptr %107, align 8
  %109 = getelementptr inbounds nuw { i64, ptr }, ptr %17, i32 0, i32 0
  %110 = load i64, ptr %109, align 8
  %111 = getelementptr inbounds nuw { i64, ptr }, ptr %17, i32 0, i32 1
  %112 = load ptr, ptr %111, align 8
  %113 = getelementptr inbounds nuw { i64, ptr }, ptr %18, i32 0, i32 0
  %114 = load i64, ptr %113, align 8
  %115 = getelementptr inbounds nuw { i64, ptr }, ptr %18, i32 0, i32 1
  %116 = load ptr, ptr %115, align 8
  %117 = call { i64, ptr } @jv_object_set(i64 %106, ptr %108, i64 %110, ptr %112, i64 %114, ptr %116)
  %118 = getelementptr inbounds nuw { i64, ptr }, ptr %16, i32 0, i32 0
  %119 = extractvalue { i64, ptr } %117, 0
  store i64 %119, ptr %118, align 8
  %120 = getelementptr inbounds nuw { i64, ptr }, ptr %16, i32 0, i32 1
  %121 = extractvalue { i64, ptr } %117, 1
  store ptr %121, ptr %120, align 8
  call void @llvm.memcpy.p0.p0.i64(ptr align 8 %9, ptr align 8 %16, i64 16, i1 false), !tbaa.struct !41
  call void @llvm.lifetime.end.p0(i64 16, ptr %16) #7
  %122 = load ptr, ptr %8, align 8, !tbaa !13
  %123 = getelementptr inbounds nuw %struct.inst, ptr %122, i32 0, i32 3
  %124 = getelementptr inbounds nuw %struct.anon, ptr %123, i32 0, i32 2
  call void @llvm.memcpy.p0.p0.i64(ptr align 8 %124, ptr align 8 %9, i64 16, i1 false), !tbaa.struct !41
  %125 = load ptr, ptr %8, align 8, !tbaa !13
  %126 = call { ptr, ptr } @inst_block(ptr noundef %125)
  %127 = getelementptr inbounds nuw { ptr, ptr }, ptr %4, i32 0, i32 0
  %128 = extractvalue { ptr, ptr } %126, 0
  store ptr %128, ptr %127, align 8
  %129 = getelementptr inbounds nuw { ptr, ptr }, ptr %4, i32 0, i32 1
  %130 = extractvalue { ptr, ptr } %126, 1
  store ptr %130, ptr %129, align 8
  call void @llvm.lifetime.end.p0(i64 16, ptr %9) #7
  call void @llvm.lifetime.end.p0(i64 8, ptr %8) #7
  %131 = load { ptr, ptr }, ptr %4, align 8
  ret { ptr, ptr } %131
}