; Function Attrs: nounwind uwtable
define dso_local { ptr, ptr } @gen_import(ptr noundef %0, ptr noundef %1, i32 noundef %2) local_unnamed_addr #1 {
  %4 = tail call ptr @jv_mem_alloc(i64 noundef 160) #17
  %5 = getelementptr inbounds nuw i8, ptr %4, i64 16
  tail call void @llvm.memset.p0.i64(ptr noundef nonnull align 8 dereferenceable(16) %4, i8 0, i64 16, i1 false)
  store i32 37, ptr %5, align 8, !tbaa !25
  %6 = getelementptr inbounds nuw i8, ptr %4, i64 152
  store i32 -1, ptr %6, align 8, !tbaa !26
  %7 = getelementptr inbounds nuw i8, ptr %4, i64 80
  %8 = getelementptr inbounds nuw i8, ptr %4, i64 104
  tail call void @llvm.memset.p0.i64(ptr noundef nonnull align 8 dereferenceable(24) %7, i8 0, i64 24, i1 false)
  store i32 -1, ptr %8, align 8, !tbaa !27
  %9 = getelementptr inbounds nuw i8, ptr %4, i64 108
  store i32 -1, ptr %9, align 4, !tbaa !28
  %10 = getelementptr inbounds nuw i8, ptr %4, i64 112
  %11 = getelementptr inbounds nuw i8, ptr %4, i64 72
  tail call void @llvm.memset.p0.i64(ptr noundef nonnull align 8 dereferenceable(32) %10, i8 0, i64 32, i1 false)
  store i64 -1, ptr %11, align 8
  %12 = getelementptr inbounds nuw i8, ptr %4, i64 64
  store ptr null, ptr %12, align 8, !tbaa !21
  %13 = tail call { i64, ptr } @jv_object() #17
  %14 = extractvalue { i64, ptr } %13, 0
  %15 = extractvalue { i64, ptr } %13, 1
  %.not = icmp eq ptr %1, null
  br i1 %.not, label %26, label %16

16:                                               ; preds = %3
  %17 = tail call { i64, ptr } @jv_string(ptr noundef nonnull @.str.3) #17
  %18 = extractvalue { i64, ptr } %17, 0
  %19 = extractvalue { i64, ptr } %17, 1
  %20 = tail call { i64, ptr } @jv_string(ptr noundef nonnull %1) #17
  %21 = extractvalue { i64, ptr } %20, 0
  %22 = extractvalue { i64, ptr } %20, 1
  %23 = tail call { i64, ptr } @jv_object_set(i64 %14, ptr %15, i64 %18, ptr %19, i64 %21, ptr %22) #17
  %24 = extractvalue { i64, ptr } %23, 0
  %25 = extractvalue { i64, ptr } %23, 1
  br label %26

26:                                               ; preds = %16, %3
  %.sroa.015.0 = phi i64 [ %24, %16 ], [ %14, %3 ]
  %.sroa.10.0 = phi ptr [ %25, %16 ], [ %15, %3 ]
  %27 = tail call { i64, ptr } @jv_string(ptr noundef nonnull @.str.4) #17
  %.not26 = icmp eq i32 %2, 0
  br i1 %.not26, label %30, label %28

28:                                               ; preds = %26
  %29 = tail call { i64, ptr } @jv_true() #17
  br label %32

30:                                               ; preds = %26
  %31 = tail call { i64, ptr } @jv_false() #17
  br label %32

32:                                               ; preds = %30, %28
  %.pn = phi { i64, ptr } [ %29, %28 ], [ %31, %30 ]
  %.sroa.3.0 = extractvalue { i64, ptr } %.pn, 1
  %.sroa.04.0 = extractvalue { i64, ptr } %.pn, 0
  %33 = extractvalue { i64, ptr } %27, 1
  %34 = extractvalue { i64, ptr } %27, 0
  %35 = tail call { i64, ptr } @jv_object_set(i64 %.sroa.015.0, ptr %.sroa.10.0, i64 %34, ptr %33, i64 %.sroa.04.0, ptr %.sroa.3.0) #17
  %36 = extractvalue { i64, ptr } %35, 0
  %37 = extractvalue { i64, ptr } %35, 1
  %38 = tail call { i64, ptr } @jv_string(ptr noundef nonnull @.str.5) #17
  %39 = extractvalue { i64, ptr } %38, 0
  %40 = extractvalue { i64, ptr } %38, 1
  %41 = tail call { i64, ptr } @jv_string(ptr noundef %0) #17
  %42 = extractvalue { i64, ptr } %41, 0
  %43 = extractvalue { i64, ptr } %41, 1
  %44 = tail call { i64, ptr } @jv_object_set(i64 %36, ptr %37, i64 %39, ptr %40, i64 %42, ptr %43) #17
  %45 = extractvalue { i64, ptr } %44, 0
  %46 = extractvalue { i64, ptr } %44, 1
  %47 = getelementptr inbounds nuw i8, ptr %4, i64 40
  store i64 %45, ptr %47, align 8
  %.sroa.10.0..sroa_idx = getelementptr inbounds nuw i8, ptr %4, i64 48
  store ptr %46, ptr %.sroa.10.0..sroa_idx, align 8, !tbaa !29
  %.fca.0.insert.i = insertvalue { ptr, ptr } poison, ptr %4, 0
  %.fca.1.insert.i = insertvalue { ptr, ptr } %.fca.0.insert.i, ptr %4, 1
  ret { ptr, ptr } %.fca.1.insert.i
}